; Function Attrs: nounwind sspstrong uwtable
define internal void @sdhci_sysbus_finalize(ptr noundef %obj) #0 {
entry:
  %call.i = tail call ptr @object_dynamic_cast_assert(ptr noundef %obj, ptr noundef nonnull @.str.151, ptr noundef nonnull @.str.153, i32 noundef 124, ptr noundef nonnull @__func__.SYSBUS_SDHCI) #12
  %dma_mr = getelementptr inbounds nuw i8, ptr %call.i, i64 3104
  %0 = load ptr, ptr %dma_mr, align 16
  %tobool.not = icmp eq ptr %0, null
  br i1 %tobool.not, label %if.end, label %if.then

if.then:                                          ; preds = %entry
  tail call void @object_unparent(ptr noundef nonnull %0) #12
  br label %if.end

if.end:                                           ; preds = %if.then, %entry
  %insert_timer.i = getelementptr inbounds nuw i8, ptr %call.i, i64 3120
  %1 = load ptr, ptr %insert_timer.i, align 16
  %tobool.not.i.i = icmp eq ptr %1, null
  br i1 %tobool.not.i.i, label %timer_free.exit.i, label %if.then.i.i

if.then.i.i:                                      ; preds = %if.end
  tail call void @timer_del(ptr noundef nonnull %1) #12
  tail call void @g_free(ptr noundef nonnull %1) #12
  br label %timer_free.exit.i

timer_free.exit.i:                                ; preds = %if.then.i.i, %if.end
  %transfer_timer.i = getelementptr inbounds nuw i8, ptr %call.i, i64 3128
  %2 = load ptr, ptr %transfer_timer.i, align 8
  %tobool.not.i4.i = icmp eq ptr %2, null
  br i1 %tobool.not.i4.i, label %sdhci_uninitfn.exit, label %if.then.i5.i

if.then.i5.i:                                     ; preds = %timer_free.exit.i
  tail call void @timer_del(ptr noundef nonnull %2) #12
  tail call void @g_free(ptr noundef nonnull %2) #12
  br label %sdhci_uninitfn.exit

sdhci_uninitfn.exit:                              ; preds = %timer_free.exit.i, %if.then.i5.i
  %fifo_buffer.i = getelementptr inbounds nuw i8, ptr %call.i, i64 3248
  %3 = load ptr, ptr %fifo_buffer.i, align 16
  tail call void @g_free(ptr noundef %3) #12
  store ptr null, ptr %fifo_buffer.i, align 16
  ret void
}